target datalayout = "e-m:e-p270:32:32-p271:32:32-p272:64:64-i64:64-i128:128-f80:128-n8:16:32:64-S128"
target triple = "x86_64-pc-linux-gnu"

%struct.ggml_tensor = type { i32, ptr, [4 x i64], [4 x i64], i32, [16 x i32], i32, [10 x ptr], ptr, i64, ptr, [64 x i8], ptr, [8 x i8] }
%struct.ggml_hash_set = type { i64, ptr, ptr }
%struct.ggml_cgraph = type { i32, i32, i32, ptr, ptr, ptr, ptr, %struct.ggml_hash_set, i32 }

@.str.12 = private unnamed_addr constant [113 x i8] c"generated/home/dtcxzyw/WorkSpace/Projects/compilers/llvm-opt-benchmark/bench/llama.cpp/llama.cpp/ggml/src/ggml.c\00", align 1
@.str.13 = private unnamed_addr constant [23 x i8] c"GGML_ASSERT(%s) failed\00", align 1
@.str.449 = private unnamed_addr constant [12 x i8] c"fatal error\00", align 1
@.str.463 = private unnamed_addr constant [118 x i8] c"generated/home/dtcxzyw/WorkSpace/Projects/compilers/llvm-opt-benchmark/bench/llama.cpp/llama.cpp/ggml/src/ggml-impl.h\00", align 1
@.str.489 = private unnamed_addr constant [31 x i8] c"cgraph->n_leafs < cgraph->size\00", align 1
@.str.490 = private unnamed_addr constant [8 x i8] c"leaf_%d\00", align 1
@.str.491 = private unnamed_addr constant [31 x i8] c"cgraph->n_nodes < cgraph->size\00", align 1
@.str.492 = private unnamed_addr constant [8 x i8] c"node_%d\00", align 1

; Function Attrs: inlinehint nounwind uwtable
define internal void @ggml_bitset_set(ptr noundef %0, i64 noundef %1) #7 {
  %3 = alloca ptr, align 8
  %4 = alloca i64, align 8
  store ptr %0, ptr %3, align 8, !tbaa !105
  store i64 %1, ptr %4, align 8, !tbaa !19
  %5 = load i64, ptr %4, align 8, !tbaa !19
  %6 = and i64 %5, 31
  %7 = trunc i64 %6 to i32
  %8 = shl i32 1, %7
  %9 = load ptr, ptr %3, align 8, !tbaa !105
  %10 = load i64, ptr %4, align 8, !tbaa !19
  %11 = lshr i64 %10, 5
  %12 = getelementptr inbounds nuw i32, ptr %9, i64 %11
  %13 = load i32, ptr %12, align 4, !tbaa !8
  %14 = or i32 %13, %8
  store i32 %14, ptr %12, align 4, !tbaa !8
  ret void
}

; Function Attrs: inlinehint nounwind uwtable
define internal zeroext i1 @ggml_bitset_get(ptr noundef %0, i64 noundef %1) #7 {
  %3 = alloca ptr, align 8
  %4 = alloca i64, align 8
  store ptr %0, ptr %3, align 8, !tbaa !105
  store i64 %1, ptr %4, align 8, !tbaa !19
  %5 = load ptr, ptr %3, align 8, !tbaa !105
  %6 = load i64, ptr %4, align 8, !tbaa !19
  %7 = lshr i64 %6, 5
  %8 = getelementptr inbounds nuw i32, ptr %5, i64 %7
  %9 = load i32, ptr %8, align 4, !tbaa !8
  %10 = load i64, ptr %4, align 8, !tbaa !19
  %11 = and i64 %10, 31
  %12 = trunc i64 %11 to i32
  %13 = shl i32 1, %12
  %14 = and i32 %9, %13
  %15 = icmp ne i32 %14, 0
  %16 = xor i1 %15, true
  %17 = xor i1 %16, true
  ret i1 %17
}

; Function Attrs: inlinehint nounwind uwtable
define internal i64 @ggml_hash(ptr noundef %0) #7 {
  %2 = alloca ptr, align 8
  store ptr %0, ptr %2, align 8, !tbaa !54
  %3 = load ptr, ptr %2, align 8, !tbaa !54
  %4 = ptrtoint ptr %3 to i64
  %5 = lshr i64 %4, 4
  ret i64 %5
}

; Function Attrs: nounwind uwtable
define internal i64 @ggml_hash_insert(ptr noundef %0, ptr noundef %1) #5 {
  %3 = alloca i64, align 8
  %4 = alloca ptr, align 8
  %5 = alloca ptr, align 8
  %6 = alloca i64, align 8
  %7 = alloca i64, align 8
  %8 = alloca i32, align 4
  store ptr %0, ptr %4, align 8, !tbaa !127
  store ptr %1, ptr %5, align 8, !tbaa !54
  call void @llvm.lifetime.start.p0(i64 8, ptr %6) #14
  %9 = load ptr, ptr %5, align 8, !tbaa !54
  %10 = call i64 @ggml_hash(ptr noundef %9)
  %11 = load ptr, ptr %4, align 8, !tbaa !127
  %12 = getelementptr inbounds nuw %struct.ggml_hash_set, ptr %11, i32 0, i32 0
  %13 = load i64, ptr %12, align 8, !tbaa !120
  %14 = urem i64 %10, %13
  store i64 %14, ptr %6, align 8, !tbaa !19
  call void @llvm.lifetime.start.p0(i64 8, ptr %7) #14
  %15 = load i64, ptr %6, align 8, !tbaa !19
  store i64 %15, ptr %7, align 8, !tbaa !19
  br label %16

16:                                               ; preds = %51, %2
  %17 = load ptr, ptr %4, align 8, !tbaa !127
  %18 = getelementptr inbounds nuw %struct.ggml_hash_set, ptr %17, i32 0, i32 1
  %19 = load ptr, ptr %18, align 8, !tbaa !125
  %20 = load i64, ptr %7, align 8, !tbaa !19
  %21 = call zeroext i1 @ggml_bitset_get(ptr noundef %19, i64 noundef %20)
  br i1 %21, label %34, label %22

22:                                               ; preds = %16
  %23 = load ptr, ptr %4, align 8, !tbaa !127
  %24 = getelementptr inbounds nuw %struct.ggml_hash_set, ptr %23, i32 0, i32 1
  %25 = load ptr, ptr %24, align 8, !tbaa !125
  %26 = load i64, ptr %7, align 8, !tbaa !19
  call void @ggml_bitset_set(ptr noundef %25, i64 noundef %26)
  %27 = load ptr, ptr %5, align 8, !tbaa !54
  %28 = load ptr, ptr %4, align 8, !tbaa !127
  %29 = getelementptr inbounds nuw %struct.ggml_hash_set, ptr %28, i32 0, i32 2
  %30 = load ptr, ptr %29, align 8, !tbaa !124
  %31 = load i64, ptr %7, align 8, !tbaa !19
  %32 = getelementptr inbounds nuw ptr, ptr %30, i64 %31
  store ptr %27, ptr %32, align 8, !tbaa !54
  %33 = load i64, ptr %7, align 8, !tbaa !19
  store i64 %33, ptr %3, align 8
  store i32 1, ptr %8, align 4
  br label %56

34:                                               ; preds = %16
  %35 = load ptr, ptr %4, align 8, !tbaa !127
  %36 = getelementptr inbounds nuw %struct.ggml_hash_set, ptr %35, i32 0, i32 2
  %37 = load ptr, ptr %36, align 8, !tbaa !124
  %38 = load i64, ptr %7, align 8, !tbaa !19
  %39 = getelementptr inbounds nuw ptr, ptr %37, i64 %38
  %40 = load ptr, ptr %39, align 8, !tbaa !54
  %41 = load ptr, ptr %5, align 8, !tbaa !54
  %42 = icmp eq ptr %40, %41
  br i1 %42, label %43, label %44

43:                                               ; preds = %34
  store i64 -2, ptr %3, align 8
  store i32 1, ptr %8, align 4
  br label %56

44:                                               ; preds = %34
  %45 = load i64, ptr %7, align 8, !tbaa !19
  %46 = add i64 %45, 1
  %47 = load ptr, ptr %4, align 8, !tbaa !127
  %48 = getelementptr inbounds nuw %struct.ggml_hash_set, ptr %47, i32 0, i32 0
  %49 = load i64, ptr %48, align 8, !tbaa !120
  %50 = urem i64 %46, %49
  store i64 %50, ptr %7, align 8, !tbaa !19
  br label %51

51:                                               ; preds = %44
  %52 = load i64, ptr %7, align 8, !tbaa !19
  %53 = load i64, ptr %6, align 8, !tbaa !19
  %54 = icmp ne i64 %52, %53
  br i1 %54, label %16, label %55, !llvm.loop !157

55:                                               ; preds = %51
  call void (ptr, i32, ptr, ...) @ggml_abort(ptr noundef @.str.463, i32 noundef 255, ptr noundef @.str.449) #18
  unreachable

56:                                               ; preds = %43, %22
  call void @llvm.lifetime.end.p0(i64 8, ptr %7) #14
  call void @llvm.lifetime.end.p0(i64 8, ptr %6) #14
  %57 = load i64, ptr %3, align 8
  ret i64 %57
}

; Function Attrs: nounwind uwtable
define internal void @ggml_visit_parents(ptr noundef %0, ptr noundef %1) #5 {
  %3 = alloca ptr, align 8
  %4 = alloca ptr, align 8
  %5 = alloca i32, align 4
  %6 = alloca i32, align 4
  store ptr %0, ptr %3, align 8, !tbaa !129
  store ptr %1, ptr %4, align 8, !tbaa !54
  %7 = load ptr, ptr %3, align 8, !tbaa !129
  %8 = getelementptr inbounds nuw %struct.ggml_cgraph, ptr %7, i32 0, i32 7
  %9 = load ptr, ptr %4, align 8, !tbaa !54
  %10 = call i64 @ggml_hash_insert(ptr noundef %8, ptr noundef %9)
  %11 = icmp eq i64 %10, -2
  br i1 %11, label %12, label %13

12:                                               ; preds = %2
  br label %139

13:                                               ; preds = %2
  call void @llvm.lifetime.start.p0(i64 4, ptr %5) #14
  store i32 0, ptr %5, align 4, !tbaa !8
  br label %14

14:                                               ; preds = %55, %13
  %15 = load i32, ptr %5, align 4, !tbaa !8
  %16 = icmp slt i32 %15, 10
  br i1 %16, label %18, label %17

17:                                               ; preds = %14
  call void @llvm.lifetime.end.p0(i64 4, ptr %5) #14
  br label %58

18:                                               ; preds = %14
  call void @llvm.lifetime.start.p0(i64 4, ptr %6) #14
  %19 = load ptr, ptr %3, align 8, !tbaa !129
  %20 = getelementptr inbounds nuw %struct.ggml_cgraph, ptr %19, i32 0, i32 8
  %21 = load i32, ptr %20, align 8, !tbaa !149
  %22 = icmp eq i32 %21, 0
  br i1 %22, label %23, label %25

23:                                               ; preds = %18
  %24 = load i32, ptr %5, align 4, !tbaa !8
  br label %37

25:                                               ; preds = %18
  %26 = load ptr, ptr %3, align 8, !tbaa !129
  %27 = getelementptr inbounds nuw %struct.ggml_cgraph, ptr %26, i32 0, i32 8
  %28 = load i32, ptr %27, align 8, !tbaa !149
  %29 = icmp eq i32 %28, 1
  br i1 %29, label %30, label %33

30:                                               ; preds = %25
  %31 = load i32, ptr %5, align 4, !tbaa !8
  %32 = sub nsw i32 9, %31
  br label %35

33:                                               ; preds = %25
  %34 = load i32, ptr %5, align 4, !tbaa !8
  br label %35

35:                                               ; preds = %33, %30
  %36 = phi i32 [ %32, %30 ], [ %34, %33 ]
  br label %37

37:                                               ; preds = %35, %23
  %38 = phi i32 [ %24, %23 ], [ %36, %35 ]
  store i32 %38, ptr %6, align 4, !tbaa !8
  %39 = load ptr, ptr %4, align 8, !tbaa !54
  %40 = getelementptr inbounds nuw %struct.ggml_tensor, ptr %39, i32 0, i32 7
  %41 = load i32, ptr %6, align 4, !tbaa !8
  %42 = sext i32 %41 to i64
  %43 = getelementptr inbounds [10 x ptr], ptr %40, i64 0, i64 %42
  %44 = load ptr, ptr %43, align 8, !tbaa !54
  %45 = icmp ne ptr %44, null
  br i1 %45, label %46, label %54

46:                                               ; preds = %37
  %47 = load ptr, ptr %3, align 8, !tbaa !129
  %48 = load ptr, ptr %4, align 8, !tbaa !54
  %49 = getelementptr inbounds nuw %struct.ggml_tensor, ptr %48, i32 0, i32 7
  %50 = load i32, ptr %6, align 4, !tbaa !8
  %51 = sext i32 %50 to i64
  %52 = getelementptr inbounds [10 x ptr], ptr %49, i64 0, i64 %51
  %53 = load ptr, ptr %52, align 8, !tbaa !54
  call void @ggml_visit_parents(ptr noundef %47, ptr noundef %53)
  br label %54

54:                                               ; preds = %46, %37
  call void @llvm.lifetime.end.p0(i64 4, ptr %6) #14
  br label %55

55:                                               ; preds = %54
  %56 = load i32, ptr %5, align 4, !tbaa !8
  %57 = add nsw i32 %56, 1
  store i32 %57, ptr %5, align 4, !tbaa !8
  br label %14, !llvm.loop !181

58:                                               ; preds = %17
  %59 = load ptr, ptr %4, align 8, !tbaa !54
  %60 = getelementptr inbounds nuw %struct.ggml_tensor, ptr %59, i32 0, i32 4
  %61 = load i32, ptr %60, align 8, !tbaa !68
  %62 = icmp eq i32 %61, 0
  br i1 %62, label %63, label %104

63:                                               ; preds = %58
  %64 = load ptr, ptr %4, align 8, !tbaa !54
  %65 = getelementptr inbounds nuw %struct.ggml_tensor, ptr %64, i32 0, i32 6
  %66 = load i32, ptr %65, align 4, !tbaa !119
  %67 = and i32 %66, 4
  %68 = icmp ne i32 %67, 0
  br i1 %68, label %104, label %69

69:                                               ; preds = %63
  %70 = load ptr, ptr %3, align 8, !tbaa !129
  %71 = getelementptr inbounds nuw %struct.ggml_cgraph, ptr %70, i32 0, i32 2
  %72 = load i32, ptr %71, align 8, !tbaa !147
  %73 = load ptr, ptr %3, align 8, !tbaa !129
  %74 = getelementptr inbounds nuw %struct.ggml_cgraph, ptr %73, i32 0, i32 0
  %75 = load i32, ptr %74, align 8, !tbaa !146
  %76 = icmp slt i32 %72, %75
  br i1 %76, label %78, label %77

77:                                               ; preds = %69
  call void (ptr, i32, ptr, ...) @ggml_abort(ptr noundef @.str.12, i32 noundef 5755, ptr noundef @.str.13, ptr noundef @.str.489) #18
  unreachable

78:                                               ; preds = %69
  %79 = load ptr, ptr %4, align 8, !tbaa !54
  %80 = getelementptr inbounds nuw %struct.ggml_tensor, ptr %79, i32 0, i32 11
  %81 = getelementptr inbounds [64 x i8], ptr %80, i64 0, i64 0
  %82 = call i64 @strlen(ptr noundef %81) #17
  %83 = icmp eq i64 %82, 0
  br i1 %83, label %84, label %90

84:                                               ; preds = %78
  %85 = load ptr, ptr %4, align 8, !tbaa !54
  %86 = load ptr, ptr %3, align 8, !tbaa !129
  %87 = getelementptr inbounds nuw %struct.ggml_cgraph, ptr %86, i32 0, i32 2
  %88 = load i32, ptr %87, align 8, !tbaa !147
  %89 = call ptr (ptr, ptr, ...) @ggml_format_name(ptr noundef %85, ptr noundef @.str.490, i32 noundef %88)
  br label %90

90:                                               ; preds = %84, %78
  %91 = load ptr, ptr %4, align 8, !tbaa !54
  %92 = load ptr, ptr %3, align 8, !tbaa !129
  %93 = getelementptr inbounds nuw %struct.ggml_cgraph, ptr %92, i32 0, i32 6
  %94 = load ptr, ptr %93, align 8, !tbaa !148
  %95 = load ptr, ptr %3, align 8, !tbaa !129
  %96 = getelementptr inbounds nuw %struct.ggml_cgraph, ptr %95, i32 0, i32 2
  %97 = load i32, ptr %96, align 8, !tbaa !147
  %98 = sext i32 %97 to i64
  %99 = getelementptr inbounds ptr, ptr %94, i64 %98
  store ptr %91, ptr %99, align 8, !tbaa !54
  %100 = load ptr, ptr %3, align 8, !tbaa !129
  %101 = getelementptr inbounds nuw %struct.ggml_cgraph, ptr %100, i32 0, i32 2
  %102 = load i32, ptr %101, align 8, !tbaa !147
  %103 = add nsw i32 %102, 1
  store i32 %103, ptr %101, align 8, !tbaa !147
  br label %139

104:                                              ; preds = %63, %58
  %105 = load ptr, ptr %3, align 8, !tbaa !129
  %106 = getelementptr inbounds nuw %struct.ggml_cgraph, ptr %105, i32 0, i32 1
  %107 = load i32, ptr %106, align 4, !tbaa !131
  %108 = load ptr, ptr %3, align 8, !tbaa !129
  %109 = getelementptr inbounds nuw %struct.ggml_cgraph, ptr %108, i32 0, i32 0
  %110 = load i32, ptr %109, align 8, !tbaa !146
  %111 = icmp slt i32 %107, %110
  br i1 %111, label %113, label %112

112:                                              ; preds = %104
  call void (ptr, i32, ptr, ...) @ggml_abort(ptr noundef @.str.12, i32 noundef 5764, ptr noundef @.str.13, ptr noundef @.str.491) #18
  unreachable

113:                                              ; preds = %104
  %114 = load ptr, ptr %4, align 8, !tbaa !54
  %115 = getelementptr inbounds nuw %struct.ggml_tensor, ptr %114, i32 0, i32 11
  %116 = getelementptr inbounds [64 x i8], ptr %115, i64 0, i64 0
  %117 = call i64 @strlen(ptr noundef %116) #17
  %118 = icmp eq i64 %117, 0
  br i1 %118, label %119, label %125

119:                                              ; preds = %113
  %120 = load ptr, ptr %4, align 8, !tbaa !54
  %121 = load ptr, ptr %3, align 8, !tbaa !129
  %122 = getelementptr inbounds nuw %struct.ggml_cgraph, ptr %121, i32 0, i32 1
  %123 = load i32, ptr %122, align 4, !tbaa !131
  %124 = call ptr (ptr, ptr, ...) @ggml_format_name(ptr noundef %120, ptr noundef @.str.492, i32 noundef %123)
  br label %125

125:                                              ; preds = %119, %113
  %126 = load ptr, ptr %4, align 8, !tbaa !54
  %127 = load ptr, ptr %3, align 8, !tbaa !129
  %128 = getelementptr inbounds nuw %struct.ggml_cgraph, ptr %127, i32 0, i32 3
  %129 = load ptr, ptr %128, align 8, !tbaa !133
  %130 = load ptr, ptr %3, align 8, !tbaa !129
  %131 = getelementptr inbounds nuw %struct.ggml_cgraph, ptr %130, i32 0, i32 1
  %132 = load i32, ptr %131, align 4, !tbaa !131
  %133 = sext i32 %132 to i64
  %134 = getelementptr inbounds ptr, ptr %129, i64 %133
  store ptr %126, ptr %134, align 8, !tbaa !54
  %135 = load ptr, ptr %3, align 8, !tbaa !129
  %136 = getelementptr inbounds nuw %struct.ggml_cgraph, ptr %135, i32 0, i32 1
  %137 = load i32, ptr %136, align 4, !tbaa !131
  %138 = add nsw i32 %137, 1
  store i32 %138, ptr %136, align 4, !tbaa !131
  br label %139

139:                                              ; preds = %12, %125, %90
  ret void
}