; Function Attrs: nounwind uwtable
define internal fastcc void @ggml_visit_parents(ptr noundef captures(none) %0, ptr noundef %1) unnamed_addr #4 {
  %3 = getelementptr inbounds nuw i8, ptr %0, i64 48
  %4 = ptrtoint ptr %1 to i64
  %5 = lshr i64 %4, 4
  %6 = load i64, ptr %3, align 8, !tbaa !91
  %7 = urem i64 %5, %6
  %8 = getelementptr inbounds nuw i8, ptr %0, i64 56
  %9 = load ptr, ptr %8, align 8, !tbaa !97
  %10 = getelementptr inbounds nuw i8, ptr %0, i64 64
  br label %11

11:                                               ; preds = %24, %2
  %.0.i = phi i64 [ %7, %2 ], [ %27, %24 ]
  %.0.fr.i = freeze i64 %.0.i
  %12 = lshr i64 %.0.fr.i, 5
  %13 = getelementptr inbounds nuw i32, ptr %9, i64 %12
  %14 = load i32, ptr %13, align 4, !tbaa !8
  %15 = trunc i64 %.0.fr.i to i32
  %16 = and i32 %15, 31
  %17 = shl nuw i32 1, %16
  %18 = and i32 %17, %14
  %.not20.i = icmp eq i32 %18, 0
  br i1 %.not20.i, label %ggml_hash_insert.exit, label %19

19:                                               ; preds = %11
  %20 = load ptr, ptr %10, align 8, !tbaa !96
  %21 = getelementptr inbounds nuw ptr, ptr %20, i64 %.0.fr.i
  %22 = load ptr, ptr %21, align 8, !tbaa !81
  %23 = icmp eq ptr %22, %1
  br i1 %23, label %ggml_hash_insert.exit.thread, label %24

24:                                               ; preds = %19
  %25 = add i64 %.0.fr.i, 1
  %26 = icmp eq i64 %25, %6
  %27 = select i1 %26, i64 0, i64 %25
  %.not.i = icmp eq i64 %27, %7
  br i1 %.not.i, label %28, label %11, !llvm.loop !119

28:                                               ; preds = %24
  tail call void (ptr, i32, ptr, ...) @ggml_abort(ptr noundef nonnull @.str.463, i32 noundef 255, ptr noundef nonnull @.str.449) #47
  unreachable

ggml_hash_insert.exit:                            ; preds = %11
  %29 = getelementptr inbounds nuw i32, ptr %9, i64 %12
  %30 = or i32 %17, %14
  store i32 %30, ptr %29, align 4, !tbaa !8
  %31 = load ptr, ptr %10, align 8, !tbaa !96
  %32 = getelementptr inbounds nuw ptr, ptr %31, i64 %.0.fr.i
  store ptr %1, ptr %32, align 8, !tbaa !81
  %33 = icmp eq i64 %.0.fr.i, -2
  br i1 %33, label %ggml_hash_insert.exit.thread, label %.preheader

.preheader:                                       ; preds = %ggml_hash_insert.exit
  %34 = getelementptr inbounds nuw i8, ptr %0, i64 72
  %35 = getelementptr inbounds nuw i8, ptr %1, i64 152
  br label %40

36:                                               ; preds = %51
  %37 = getelementptr inbounds nuw i8, ptr %1, i64 80
  %38 = load i32, ptr %37, align 8, !tbaa !55
  %39 = icmp eq i32 %38, 0
  br i1 %39, label %53, label %75

40:                                               ; preds = %.preheader, %51
  %.051 = phi i32 [ 0, %.preheader ], [ %52, %51 ]
  %41 = load i32, ptr %34, align 8, !tbaa !112
  %42 = icmp eq i32 %41, 0
  %43 = icmp eq i32 %41, 1
  %44 = sub nuw nsw i32 9, %.051
  %45 = select i1 %43, i32 %44, i32 %.051
  %46 = select i1 %42, i32 %.051, i32 %45
  %47 = zext nneg i32 %46 to i64
  %48 = getelementptr inbounds nuw [10 x ptr], ptr %35, i64 0, i64 %47
  %49 = load ptr, ptr %48, align 8, !tbaa !81
  %.not38 = icmp eq ptr %49, null
  br i1 %.not38, label %51, label %50

50:                                               ; preds = %40
  tail call fastcc void @ggml_visit_parents(ptr noundef nonnull %0, ptr noundef nonnull %49)
  br label %51

51:                                               ; preds = %50, %40
  %52 = add nuw nsw i32 %.051, 1
  %exitcond.not = icmp eq i32 %52, 10
  br i1 %exitcond.not, label %36, label %40, !llvm.loop !143

53:                                               ; preds = %36
  %54 = getelementptr inbounds nuw i8, ptr %1, i64 148
  %55 = load i32, ptr %54, align 4, !tbaa !89
  %56 = and i32 %55, 4
  %.not = icmp eq i32 %56, 0
  br i1 %.not, label %57, label %75

57:                                               ; preds = %53
  %58 = getelementptr inbounds nuw i8, ptr %0, i64 8
  %59 = load i32, ptr %58, align 8, !tbaa !114
  %60 = load i32, ptr %0, align 8, !tbaa !113
  %61 = icmp slt i32 %59, %60
  br i1 %61, label %63, label %62

62:                                               ; preds = %57
  tail call void (ptr, i32, ptr, ...) @ggml_abort(ptr noundef nonnull @.str.12, i32 noundef 5755, ptr noundef nonnull @.str.13, ptr noundef nonnull @.str.489) #47
  unreachable

63:                                               ; preds = %57
  %64 = getelementptr inbounds nuw i8, ptr %1, i64 256
  %char0 = load i8, ptr %64, align 1
  %65 = icmp eq i8 %char0, 0
  br i1 %65, label %66, label %68

66:                                               ; preds = %63
  %67 = tail call ptr (ptr, ptr, ...) @ggml_format_name(ptr noundef nonnull %1, ptr noundef nonnull @.str.490, i32 noundef %59)
  %.pre62 = load i32, ptr %58, align 8, !tbaa !114
  br label %68

68:                                               ; preds = %66, %63
  %69 = phi i32 [ %.pre62, %66 ], [ %59, %63 ]
  %70 = getelementptr inbounds nuw i8, ptr %0, i64 40
  %71 = load ptr, ptr %70, align 8, !tbaa !115
  %72 = sext i32 %69 to i64
  %73 = getelementptr inbounds ptr, ptr %71, i64 %72
  store ptr %1, ptr %73, align 8, !tbaa !81
  %74 = add nsw i32 %69, 1
  store i32 %74, ptr %58, align 8, !tbaa !114
  br label %ggml_hash_insert.exit.thread

75:                                               ; preds = %53, %36
  %76 = getelementptr inbounds nuw i8, ptr %0, i64 4
  %77 = load i32, ptr %76, align 4, !tbaa !98
  %78 = load i32, ptr %0, align 8, !tbaa !113
  %79 = icmp slt i32 %77, %78
  br i1 %79, label %81, label %80

80:                                               ; preds = %75
  tail call void (ptr, i32, ptr, ...) @ggml_abort(ptr noundef nonnull @.str.12, i32 noundef 5764, ptr noundef nonnull @.str.13, ptr noundef nonnull @.str.491) #47
  unreachable

81:                                               ; preds = %75
  %82 = getelementptr inbounds nuw i8, ptr %1, i64 256
  %char037 = load i8, ptr %82, align 1
  %83 = icmp eq i8 %char037, 0
  br i1 %83, label %84, label %86

84:                                               ; preds = %81
  %85 = tail call ptr (ptr, ptr, ...) @ggml_format_name(ptr noundef nonnull %1, ptr noundef nonnull @.str.492, i32 noundef %77)
  %.pre = load i32, ptr %76, align 4, !tbaa !98
  br label %86

86:                                               ; preds = %84, %81
  %87 = phi i32 [ %.pre, %84 ], [ %77, %81 ]
  %88 = getelementptr inbounds nuw i8, ptr %0, i64 16
  %89 = load ptr, ptr %88, align 8, !tbaa !100
  %90 = sext i32 %87 to i64
  %91 = getelementptr inbounds ptr, ptr %89, i64 %90
  store ptr %1, ptr %91, align 8, !tbaa !81
  %92 = add nsw i32 %87, 1
  store i32 %92, ptr %76, align 4, !tbaa !98
  br label %ggml_hash_insert.exit.thread

ggml_hash_insert.exit.thread:                     ; preds = %19, %ggml_hash_insert.exit, %86, %68
  ret void
}